target datalayout = "e-m:e-p270:32:32-p271:32:32-p272:64:64-i64:64-i128:128-f80:128-n8:16:32:64-S128"
target triple = "x86_64-pc-linux-gnu"

%struct.persist_msg_t = type { ptr, ptr, i16 }
%struct.dbd_fini_msg = type { i16, i16 }

; Function Attrs: nounwind uwtable
define dso_local i32 @acct_storage_p_commit(ptr noundef %0, i1 noundef zeroext %1) #0 {
  %3 = alloca ptr, align 8
  %4 = alloca i8, align 1
  %5 = alloca %struct.persist_msg_t, align 8
  %6 = alloca %struct.dbd_fini_msg, align 2
  %7 = alloca i32, align 4
  %8 = alloca i32, align 4
  store ptr %0, ptr %3, align 8
  %9 = zext i1 %1 to i8
  store i8 %9, ptr %4, align 1
  call void @llvm.lifetime.start.p0(i64 24, ptr %5) #9
  call void @llvm.memset.p0.i64(ptr align 8 %5, i8 0, i64 24, i1 false)
  call void @llvm.lifetime.start.p0(i64 4, ptr %6) #9
  call void @llvm.lifetime.start.p0(i64 4, ptr %7) #9
  call void @llvm.lifetime.start.p0(i64 4, ptr %8) #9
  store i32 0, ptr %8, align 4
  call void @llvm.memset.p0.i64(ptr align 2 %6, i8 0, i64 4, i1 false)
  %10 = getelementptr inbounds nuw %struct.dbd_fini_msg, ptr %6, i32 0, i32 0
  store i16 0, ptr %10, align 2
  %11 = load i8, ptr %4, align 1, !range !8, !noundef !9
  %12 = trunc i8 %11 to i1
  %13 = zext i1 %12 to i16
  %14 = getelementptr inbounds nuw %struct.dbd_fini_msg, ptr %6, i32 0, i32 1
  store i16 %13, ptr %14, align 2
  %15 = getelementptr inbounds nuw %struct.persist_msg_t, ptr %5, i32 0, i32 2
  store i16 1401, ptr %15, align 8
  %16 = load ptr, ptr %3, align 8
  %17 = getelementptr inbounds nuw %struct.persist_msg_t, ptr %5, i32 0, i32 0
  store ptr %16, ptr %17, align 8
  %18 = getelementptr inbounds nuw %struct.persist_msg_t, ptr %5, i32 0, i32 1
  store ptr %6, ptr %18, align 8
  %19 = call i32 @dbd_conn_send_recv_rc_msg(i16 noundef zeroext 11008, ptr noundef %5, ptr noundef %8)
  store i32 %19, ptr %7, align 4
  %20 = load i32, ptr %8, align 4
  %21 = icmp ne i32 %20, 0
  br i1 %21, label %22, label %24

22:                                               ; preds = %2
  %23 = load i32, ptr %8, align 4
  store i32 %23, ptr %7, align 4
  br label %24

24:                                               ; preds = %22, %2
  %25 = load i32, ptr %7, align 4
  call void @llvm.lifetime.end.p0(i64 4, ptr %8) #9
  call void @llvm.lifetime.end.p0(i64 4, ptr %7) #9
  call void @llvm.lifetime.end.p0(i64 4, ptr %6) #9
  call void @llvm.lifetime.end.p0(i64 24, ptr %5) #9
  ret i32 %25
}